; Function Attrs: mustprogress uwtable
define void @_ZN6casadi13CodeGenerator11initializerB5cxx11ERKSt6vectorIxSaIxEE(ptr dead_on_unwind noalias writable sret(%"class.std::__cxx11::basic_string") align 8 %0, ptr nocapture nonnull readnone align 8 %1, ptr nocapture noundef nonnull readonly align 8 dereferenceable(24) %2) local_unnamed_addr #3 align 2 personality ptr @__gxx_personality_v0 {
  %4 = alloca %"class.std::__cxx11::basic_stringstream", align 8
  call void @_ZNSt7__cxx1118basic_stringstreamIcSt11char_traitsIcESaIcEEC1Ev(ptr noundef nonnull align 8 dereferenceable(128) %4)
  %5 = getelementptr inbounds i8, ptr %4, i64 16
  %6 = invoke noundef nonnull align 8 dereferenceable(8) ptr @_ZStlsISt11char_traitsIcEERSt13basic_ostreamIcT_ES5_PKc(ptr noundef nonnull align 8 dereferenceable(8) %5, ptr noundef nonnull @.str.508)
          to label %.preheader unwind label %.loopexit.split-lp

.preheader:                                       ; preds = %3
  %7 = getelementptr inbounds i8, ptr %2, i64 8
  %8 = load ptr, ptr %7, align 8
  %9 = load ptr, ptr %2, align 8
  %.not9 = icmp eq ptr %8, %9
  br i1 %.not9, label %._crit_edge, label %.lr.ph

.lr.ph:                                           ; preds = %.preheader, %18
  %10 = phi ptr [ %21, %18 ], [ %9, %.preheader ]
  %.08 = phi i64 [ %19, %18 ], [ 0, %.preheader ]
  %.not = icmp eq i64 %.08, 0
  br i1 %.not, label %.split, label %11

11:                                               ; preds = %.lr.ph
  %12 = invoke noundef nonnull align 8 dereferenceable(8) ptr @_ZStlsISt11char_traitsIcEERSt13basic_ostreamIcT_ES5_PKc(ptr noundef nonnull align 8 dereferenceable(8) %5, ptr noundef nonnull @.str.125)
          to label %.split7 unwind label %.loopexit

.split7:                                          ; preds = %11
  %13 = load ptr, ptr %2, align 8
  %14 = getelementptr inbounds i64, ptr %13, i64 %.08
  br label %.split

.loopexit:                                        ; preds = %11, %.split
  %lpad.loopexit = landingpad { ptr, i32 }
          cleanup
  br label %15

.loopexit.split-lp:                               ; preds = %3, %._crit_edge, %28
  %lpad.loopexit.split-lp = landingpad { ptr, i32 }
          cleanup
  br label %15

15:                                               ; preds = %.loopexit.split-lp, %.loopexit
  %lpad.phi = phi { ptr, i32 } [ %lpad.loopexit, %.loopexit ], [ %lpad.loopexit.split-lp, %.loopexit.split-lp ]
  call void @_ZNSt7__cxx1118basic_stringstreamIcSt11char_traitsIcESaIcEED1Ev(ptr noundef nonnull align 8 dereferenceable(128) %4) #19
  resume { ptr, i32 } %lpad.phi

.split:                                           ; preds = %.lr.ph, %.split7
  %phi.call = phi ptr [ %14, %.split7 ], [ %10, %.lr.ph ]
  %16 = load i64, ptr %phi.call, align 8
  %17 = invoke noundef nonnull align 8 dereferenceable(8) ptr @_ZNSolsEx(ptr noundef nonnull align 8 dereferenceable(8) %5, i64 noundef %16)
          to label %18 unwind label %.loopexit

18:                                               ; preds = %.split
  %19 = add nuw nsw i64 %.08, 1
  %20 = load ptr, ptr %7, align 8
  %21 = load ptr, ptr %2, align 8
  %22 = ptrtoint ptr %20 to i64
  %23 = ptrtoint ptr %21 to i64
  %24 = sub i64 %22, %23
  %25 = ashr exact i64 %24, 3
  %26 = icmp ult i64 %19, %25
  br i1 %26, label %.lr.ph, label %._crit_edge, !llvm.loop !127

._crit_edge:                                      ; preds = %18, %.preheader
  %27 = invoke noundef nonnull align 8 dereferenceable(8) ptr @_ZStlsISt11char_traitsIcEERSt13basic_ostreamIcT_ES5_PKc(ptr noundef nonnull align 8 dereferenceable(8) %5, ptr noundef nonnull @.str.509)
          to label %28 unwind label %.loopexit.split-lp

28:                                               ; preds = %._crit_edge
  invoke void @_ZNKSt7__cxx1118basic_stringstreamIcSt11char_traitsIcESaIcEE3strEv(ptr dead_on_unwind writable sret(%"class.std::__cxx11::basic_string") align 8 %0, ptr noundef nonnull align 8 dereferenceable(128) %4)
          to label %29 unwind label %.loopexit.split-lp

29:                                               ; preds = %28
  call void @_ZNSt7__cxx1118basic_stringstreamIcSt11char_traitsIcESaIcEED1Ev(ptr noundef nonnull align 8 dereferenceable(128) %4) #19
  ret void
}